Certificate:
    Data:
        Version: 3 (0x2)
        Serial Number:
            24:90:2c:a0:7b:f5:bd:13:54:09:ab:0a:a1:e8:52:38:7d:82:a4:20
        Signature Algorithm: ecdsa-with-SHA256
        Issuer: C = FR, L = Limoges, O = CRYPTIS, OU = SecuTIC, CN = localhost
        Validity
            Not Before: Apr 30 20:50:28 2021 GMT
            Not After : May 30 20:50:28 2021 GMT
        Subject: C = FR, L = Limoges, O = CRYPTIS, OU = SecuTIC, CN = localhost
        Subject Public Key Info:
            Public Key Algorithm: id-ecPublicKey
                Public-Key: (256 bit)
                pub:
                    04:22:f4:18:f2:b8:f6:7f:af:55:76:df:a3:4f:ed:
                    fc:20:b2:83:e5:f7:64:d0:f4:c2:b1:a2:b4:8a:74:
                    35:24:7f:2a:4c:69:0f:b4:35:62:1a:9a:73:e0:6d:
                    a2:da:78:e0:66:90:2c:c9:c9:68:44:b7:22:64:c9:
                    92:72:06:34:b3
                ASN1 OID: prime256v1
                NIST CURVE: P-256
        X509v3 extensions:
            X509v3 Basic Constraints: 
                CA:TRUE
    Signature Algorithm: ecdsa-with-SHA256
         30:45:02:21:00:f1:9a:da:e3:57:e3:d3:96:dd:5a:d5:de:3a:
         2d:f7:3a:f8:f3:5a:4c:5a:53:b6:c0:b1:09:cc:0c:22:79:b9:
         12:02:20:14:a7:31:2b:9d:13:88:f4:cf:83:b1:82:2e:f6:bf:
         8f:6e:85:6c:13:49:36:b4:2c:f1:db:87:6e:1e:e7:28:7a
-----BEGIN CERTIFICATE-----
MIIBwDCCAWagAwIBAgIUJJAsoHv1vRNUCasKoehSOH2CpCAwCgYIKoZIzj0EAwIw
VzELMAkGA1UEBhMCRlIxEDAOBgNVBAcMB0xpbW9nZXMxEDAOBgNVBAoMB0NSWVBU
SVMxEDAOBgNVBAsMB1NlY3VUSUMxEjAQBgNVBAMMCWxvY2FsaG9zdDAeFw0yMTA0
MzAyMDUwMjhaFw0yMTA1MzAyMDUwMjhaMFcxCzAJBgNVBAYTAkZSMRAwDgYDVQQH
DAdMaW1vZ2VzMRAwDgYDVQQKDAdDUllQVElTMRAwDgYDVQQLDAdTZWN1VElDMRIw
EAYDVQQDDAlsb2NhbGhvc3QwWTATBgcqhkjOPQIBBggqhkjOPQMBBwNCAAQi9Bjy
uPZ/r1V236NP7fwgsoPl92TQ9MKxorSKdDUkfypMaQ+0NWIamnPgbaLaeOBmkCzJ
yWhEtyJkyZJyBjSzoxAwDjAMBgNVHRMEBTADAQH/MAoGCCqGSM49BAMCA0gAMEUC
IQDxmtrjV+PTlt1a1d46Lfc6+PNaTFpTtsCxCcwMInm5EgIgFKcxK50TiPTPg7GC
Lva/j26FbBNJNrQs8duHbh7nKHo=
-----END CERTIFICATE-----
