Certificate:
    Data:
        Version: 3 (0x2)
        Serial Number:
            75:18:0c:89:4e:60:6b:92:e6:8f:1a:e0:a1:02:99:34:45:50:e1:f4
        Signature Algorithm: ecdsa-with-SHA256
        Issuer: C = FR, L = Limoges, O = CRYPTIS, OU = SecuTIC, CN = localhost
        Validity
            Not Before: Apr 30 20:51:58 2021 GMT
            Not After : Apr 28 20:51:58 2031 GMT
        Subject: C = FR, L = Limoges, O = CRYPTIS, OU = SecuTIC, CN = localhost
        Subject Public Key Info:
            Public Key Algorithm: id-ecPublicKey
                Public-Key: (256 bit)
                pub:
                    04:22:f4:18:f2:b8:f6:7f:af:55:76:df:a3:4f:ed:
                    fc:20:b2:83:e5:f7:64:d0:f4:c2:b1:a2:b4:8a:74:
                    35:24:7f:2a:4c:69:0f:b4:35:62:1a:9a:73:e0:6d:
                    a2:da:78:e0:66:90:2c:c9:c9:68:44:b7:22:64:c9:
                    92:72:06:34:b3
                ASN1 OID: prime256v1
                NIST CURVE: P-256
        X509v3 extensions:
            X509v3 Basic Constraints: critical
                CA:FALSE
    Signature Algorithm: ecdsa-with-SHA256
         30:45:02:21:00:d3:72:37:0d:28:a3:e0:35:cd:09:34:32:c0:
         11:29:78:b0:e9:e0:d4:fb:0c:ad:18:d1:aa:42:b4:23:b6:d7:
         20:02:20:59:25:dc:94:71:62:94:75:a2:74:9e:52:e5:da:f1:
         e9:03:3f:d9:23:e3:4a:67:ff:5c:a1:c1:5e:67:fe:79:9f
-----BEGIN CERTIFICATE-----
MIIBwDCCAWagAwIBAgIUdRgMiU5ga5LmjxrgoQKZNEVQ4fQwCgYIKoZIzj0EAwIw
VzELMAkGA1UEBhMCRlIxEDAOBgNVBAcMB0xpbW9nZXMxEDAOBgNVBAoMB0NSWVBU
SVMxEDAOBgNVBAsMB1NlY3VUSUMxEjAQBgNVBAMMCWxvY2FsaG9zdDAeFw0yMTA0
MzAyMDUxNThaFw0zMTA0MjgyMDUxNThaMFcxCzAJBgNVBAYTAkZSMRAwDgYDVQQH
DAdMaW1vZ2VzMRAwDgYDVQQKDAdDUllQVElTMRAwDgYDVQQLDAdTZWN1VElDMRIw
EAYDVQQDDAlsb2NhbGhvc3QwWTATBgcqhkjOPQIBBggqhkjOPQMBBwNCAAQi9Bjy
uPZ/r1V236NP7fwgsoPl92TQ9MKxorSKdDUkfypMaQ+0NWIamnPgbaLaeOBmkCzJ
yWhEtyJkyZJyBjSzoxAwDjAMBgNVHRMBAf8EAjAAMAoGCCqGSM49BAMCA0gAMEUC
IQDTcjcNKKPgNc0JNDLAESl4sOng1PsMrRjRqkK0I7bXIAIgWSXclHFilHWidJ5S
5drx6QM/2SPjSmf/XKHBXmf+eZ8=
-----END CERTIFICATE-----
