Certificate Request:
    Data:
        Version: 1 (0x0)
        Subject: C = FR, L = Limoges, O = CRYPTIS, OU = SecuTIC, CN = localhost
        Subject Public Key Info:
            Public Key Algorithm: id-ecPublicKey
                Public-Key: (256 bit)
                pub:
                    04:22:f4:18:f2:b8:f6:7f:af:55:76:df:a3:4f:ed:
                    fc:20:b2:83:e5:f7:64:d0:f4:c2:b1:a2:b4:8a:74:
                    35:24:7f:2a:4c:69:0f:b4:35:62:1a:9a:73:e0:6d:
                    a2:da:78:e0:66:90:2c:c9:c9:68:44:b7:22:64:c9:
                    92:72:06:34:b3
                ASN1 OID: prime256v1
                NIST CURVE: P-256
        Attributes:
        Requested Extensions:
            X509v3 Basic Constraints: 
                CA:FALSE
    Signature Algorithm: ecdsa-with-SHA256
         30:45:02:21:00:ab:73:5f:af:07:88:4b:b8:f1:e6:c7:b2:3a:
         12:c5:1b:83:bc:21:5e:5a:24:93:ac:a6:99:e4:4c:28:9b:31:
         f0:02:20:6f:bb:6e:ea:dc:11:68:e8:ac:ea:9e:98:9f:8a:ce:
         56:85:23:e4:3d:c2:01:d1:a5:27:52:21:6a:f2:f0:78:0d
-----BEGIN CERTIFICATE REQUEST-----
MIIBLjCB1QIBADBXMQswCQYDVQQGEwJGUjEQMA4GA1UEBwwHTGltb2dlczEQMA4G
A1UECgwHQ1JZUFRJUzEQMA4GA1UECwwHU2VjdVRJQzESMBAGA1UEAwwJbG9jYWxo
b3N0MFkwEwYHKoZIzj0CAQYIKoZIzj0DAQcDQgAEIvQY8rj2f69Vdt+jT+38ILKD
5fdk0PTCsaK0inQ1JH8qTGkPtDViGppz4G2i2njgZpAsycloRLciZMmScgY0s6Ac
MBoGCSqGSIb3DQEJDjENMAswCQYDVR0TBAIwADAKBggqhkjOPQQDAgNIADBFAiEA
q3NfrweIS7jx5seyOhLFG4O8IV5aJJOsppnkTCibMfACIG+7burcEWjorOqemJ+K
zlaFI+Q9wgHRpSdSIWry8HgN
-----END CERTIFICATE REQUEST-----
