Certificate:
    Data:
        Version: 3 (0x2)
        Serial Number:
            75:18:0c:89:4e:60:6b:92:e6:8f:1a:e0:a1:02:99:34:45:50:e1:f3
        Signature Algorithm: ecdsa-with-SHA256
        Issuer: C = FR, L = Limoges, O = CRYPTIS, OU = SecuTIC, CN = localhost
        Validity
            Not Before: Apr 30 20:51:34 2021 GMT
            Not After : Apr 28 20:51:34 2031 GMT
        Subject: C = FR, L = Limoges, O = CRYPTIS, OU = SecuTIC, CN = localhost
        Subject Public Key Info:
            Public Key Algorithm: id-ecPublicKey
                Public-Key: (256 bit)
                pub:
                    04:22:f4:18:f2:b8:f6:7f:af:55:76:df:a3:4f:ed:
                    fc:20:b2:83:e5:f7:64:d0:f4:c2:b1:a2:b4:8a:74:
                    35:24:7f:2a:4c:69:0f:b4:35:62:1a:9a:73:e0:6d:
                    a2:da:78:e0:66:90:2c:c9:c9:68:44:b7:22:64:c9:
                    92:72:06:34:b3
                ASN1 OID: prime256v1
                NIST CURVE: P-256
        X509v3 extensions:
            X509v3 Basic Constraints: critical
                CA:FALSE
            X509v3 Key Usage: critical
                Digital Signature
    Signature Algorithm: ecdsa-with-SHA256
         30:45:02:21:00:a7:f4:59:6e:ad:c2:4a:89:4d:27:a9:89:de:
         bf:38:09:37:4a:33:78:21:ff:63:6f:37:77:d0:5c:d3:73:be:
         a4:02:20:0d:3e:56:4f:1d:68:f3:c0:1a:2d:08:83:e3:47:ab:
         b1:81:f5:ce:d4:ff:b8:c5:f2:74:d9:2c:68:65:9d:c2:7c
-----BEGIN CERTIFICATE-----
MIIB0DCCAXagAwIBAgIUdRgMiU5ga5LmjxrgoQKZNEVQ4fMwCgYIKoZIzj0EAwIw
VzELMAkGA1UEBhMCRlIxEDAOBgNVBAcMB0xpbW9nZXMxEDAOBgNVBAoMB0NSWVBU
SVMxEDAOBgNVBAsMB1NlY3VUSUMxEjAQBgNVBAMMCWxvY2FsaG9zdDAeFw0yMTA0
MzAyMDUxMzRaFw0zMTA0MjgyMDUxMzRaMFcxCzAJBgNVBAYTAkZSMRAwDgYDVQQH
DAdMaW1vZ2VzMRAwDgYDVQQKDAdDUllQVElTMRAwDgYDVQQLDAdTZWN1VElDMRIw
EAYDVQQDDAlsb2NhbGhvc3QwWTATBgcqhkjOPQIBBggqhkjOPQMBBwNCAAQi9Bjy
uPZ/r1V236NP7fwgsoPl92TQ9MKxorSKdDUkfypMaQ+0NWIamnPgbaLaeOBmkCzJ
yWhEtyJkyZJyBjSzoyAwHjAMBgNVHRMBAf8EAjAAMA4GA1UdDwEB/wQEAwIHgDAK
BggqhkjOPQQDAgNIADBFAiEAp/RZbq3CSolNJ6mJ3r84CTdKM3gh/2NvN3fQXNNz
vqQCIA0+Vk8daPPAGi0Ig+NHq7GB9c7U/7jF8nTZLGhlncJ8
-----END CERTIFICATE-----
